target datalayout = "e-m:e-p270:32:32-p271:32:32-p272:64:64-i64:64-i128:128-f80:128-n8:16:32:64-S128"
target triple = "x86_64-pc-linux-gnu"

%struct.Vec_Int_t_ = type { i32, i32, ptr }

; Function Attrs: nounwind uwtable
define internal i32 @Vec_IntEntryLast(ptr noundef %0) #0 {
  %2 = alloca ptr, align 8
  store ptr %0, ptr %2, align 8
  %3 = load ptr, ptr %2, align 8
  %4 = getelementptr inbounds %struct.Vec_Int_t_, ptr %3, i32 0, i32 2
  %5 = load ptr, ptr %4, align 8
  %6 = load ptr, ptr %2, align 8
  %7 = getelementptr inbounds %struct.Vec_Int_t_, ptr %6, i32 0, i32 1
  %8 = load i32, ptr %7, align 4
  %9 = sub nsw i32 %8, 1
  %10 = sext i32 %9 to i64
  %11 = getelementptr inbounds i32, ptr %5, i64 %10
  %12 = load i32, ptr %11, align 4
  ret i32 %12
}

; Function Attrs: nounwind uwtable
define void @Rtl_VecExtend(ptr noundef %0, i32 noundef %1, i32 noundef %2) #0 {
  %4 = alloca ptr, align 8
  %5 = alloca i32, align 4
  %6 = alloca i32, align 4
  store ptr %0, ptr %4, align 8
  store i32 %1, ptr %5, align 4
  store i32 %2, ptr %6, align 4
  %7 = load ptr, ptr %4, align 8
  %8 = load i32, ptr %5, align 4
  %9 = load i32, ptr %6, align 4
  %10 = icmp ne i32 %9, 0
  br i1 %10, label %11, label %14

11:                                               ; preds = %3
  %12 = load ptr, ptr %4, align 8
  %13 = call i32 @Vec_IntEntryLast(ptr noundef %12)
  br label %15

14:                                               ; preds = %3
  br label %15

15:                                               ; preds = %14, %11
  %16 = phi i32 [ %13, %11 ], [ 0, %14 ]
  call void @Vec_IntFillExtra(ptr noundef %7, i32 noundef %8, i32 noundef %16)
  ret void
}