; Function Attrs: nounwind uwtable
define void @Rtl_VecExtend(ptr noundef captures(none) %0, i32 noundef %1, i32 noundef %2) local_unnamed_addr #0 {
  %.not = icmp eq i32 %2, 0
  br i1 %.not, label %11, label %4

4:                                                ; preds = %3
  %5 = getelementptr i8, ptr %0, i64 4
  %.val = load i32, ptr %5, align 4
  %6 = getelementptr i8, ptr %0, i64 8
  %.val3 = load ptr, ptr %6, align 8
  %7 = sext i32 %.val to i64
  %8 = getelementptr i32, ptr %.val3, i64 %7
  %9 = getelementptr i8, ptr %8, i64 -4
  %10 = load i32, ptr %9, align 4
  br label %11

11:                                               ; preds = %3, %4
  %12 = phi i32 [ %10, %4 ], [ 0, %3 ]
  tail call fastcc void @Vec_IntFillExtra(ptr noundef %0, i32 noundef %1, i32 noundef %12)
  ret void
}